target datalayout = "e-m:e-p270:32:32-p271:32:32-p272:64:64-i64:64-i128:128-f80:128-n8:16:32:64-S128"
target triple = "x86_64-pc-linux-gnu"

%struct.ProcSignalHeader = type { %struct.pg_atomic_uint64, [0 x %struct.ProcSignalSlot] }
%struct.pg_atomic_uint64 = type { i64 }
%struct.ProcSignalSlot = type { %struct.pg_atomic_uint32, i8, i32, [14 x i32], i8, %struct.pg_atomic_uint64, %struct.pg_atomic_uint32, %struct.ConditionVariable }
%struct.pg_atomic_uint32 = type { i32 }
%struct.ConditionVariable = type { i8, %struct.proclist_head }
%struct.proclist_head = type { i32, i32 }
%struct.__jmp_buf_tag = type { [8 x i64], i32, %struct.__sigset_t }
%struct.__sigset_t = type { [16 x i64] }

@ProcSignal = internal global ptr null, align 8
@MyProcSignalSlot = internal global ptr null, align 8
@ProcSignalBarrierPending = external global i32, align 4
@PG_exception_stack = external global ptr, align 8
@error_context_stack = external global ptr, align 8
@InterruptPending = external global i32, align 4

; Function Attrs: inlinehint nounwind uwtable
define internal i32 @pg_atomic_fetch_or_u32_impl(ptr noundef %0, i32 noundef %1) #3 {
  %3 = alloca ptr, align 8
  %4 = alloca i32, align 4
  store ptr %0, ptr %3, align 8
  store i32 %1, ptr %4, align 4
  %5 = load ptr, ptr %3, align 8
  %6 = getelementptr inbounds nuw %struct.pg_atomic_uint32, ptr %5, i32 0, i32 0
  %7 = load i32, ptr %4, align 4
  %8 = atomicrmw or ptr %6, i32 %7 seq_cst, align 4
  ret i32 %8
}

; Function Attrs: inlinehint nounwind uwtable
define internal void @pg_atomic_write_u64_impl(ptr noundef %0, i64 noundef %1) #3 {
  %3 = alloca ptr, align 8
  %4 = alloca i64, align 8
  store ptr %0, ptr %3, align 8
  store i64 %1, ptr %4, align 8
  %5 = load i64, ptr %4, align 8
  %6 = load ptr, ptr %3, align 8
  %7 = getelementptr inbounds nuw %struct.pg_atomic_uint64, ptr %6, i32 0, i32 0
  store volatile i64 %5, ptr %7, align 8
  ret void
}

; Function Attrs: inlinehint nounwind uwtable
define internal i32 @pg_atomic_fetch_or_u32(ptr noundef %0, i32 noundef %1) #3 {
  %3 = alloca ptr, align 8
  %4 = alloca i32, align 4
  store ptr %0, ptr %3, align 8
  store i32 %1, ptr %4, align 4
  %5 = load ptr, ptr %3, align 8
  %6 = load i32, ptr %4, align 4
  %7 = call i32 @pg_atomic_fetch_or_u32_impl(ptr noundef %5, i32 noundef %6)
  ret i32 %7
}

; Function Attrs: inlinehint nounwind uwtable
define internal i32 @pg_atomic_exchange_u32_impl(ptr noundef %0, i32 noundef %1) #3 {
  %3 = alloca ptr, align 8
  %4 = alloca i32, align 4
  %5 = alloca i32, align 4
  %6 = alloca i32, align 4
  store ptr %0, ptr %3, align 8
  store i32 %1, ptr %4, align 4
  %7 = load ptr, ptr %3, align 8
  %8 = getelementptr inbounds nuw %struct.pg_atomic_uint32, ptr %7, i32 0, i32 0
  %9 = load i32, ptr %4, align 4
  store i32 %9, ptr %5, align 4
  %10 = load i32, ptr %5, align 4
  %11 = atomicrmw volatile xchg ptr %8, i32 %10 seq_cst, align 4
  store i32 %11, ptr %6, align 4
  %12 = load i32, ptr %6, align 4
  ret i32 %12
}

; Function Attrs: inlinehint nounwind uwtable
define internal i64 @pg_atomic_read_u64_impl(ptr noundef %0) #3 {
  %2 = alloca ptr, align 8
  store ptr %0, ptr %2, align 8
  %3 = load ptr, ptr %2, align 8
  %4 = getelementptr inbounds nuw %struct.pg_atomic_uint64, ptr %3, i32 0, i32 0
  %5 = load volatile i64, ptr %4, align 8
  ret i64 %5
}

; Function Attrs: inlinehint nounwind uwtable
define internal void @pg_atomic_write_u64(ptr noundef %0, i64 noundef %1) #3 {
  %3 = alloca ptr, align 8
  %4 = alloca i64, align 8
  store ptr %0, ptr %3, align 8
  store i64 %1, ptr %4, align 8
  %5 = load ptr, ptr %3, align 8
  %6 = load i64, ptr %4, align 8
  call void @pg_atomic_write_u64_impl(ptr noundef %5, i64 noundef %6)
  ret void
}

; Function Attrs: nounwind uwtable
define internal void @ResetProcSignalBarrierBits(i32 noundef %0) #0 {
  %2 = alloca i32, align 4
  store i32 %0, ptr %2, align 4
  %3 = load ptr, ptr @MyProcSignalSlot, align 8
  %4 = getelementptr inbounds nuw %struct.ProcSignalSlot, ptr %3, i32 0, i32 6
  %5 = load i32, ptr %2, align 4
  %6 = call i32 @pg_atomic_fetch_or_u32(ptr noundef %4, i32 noundef %5)
  store volatile i32 1, ptr @ProcSignalBarrierPending, align 4
  store volatile i32 1, ptr @InterruptPending, align 4
  ret void
}

; Function Attrs: inlinehint nounwind uwtable
define internal i32 @pg_rightmost_one_pos32(i32 noundef %0) #3 {
  %2 = alloca i32, align 4
  store i32 %0, ptr %2, align 4
  %3 = load i32, ptr %2, align 4
  %4 = call i32 @llvm.cttz.i32(i32 %3, i1 true)
  ret i32 %4
}

; Function Attrs: inlinehint nounwind uwtable
define internal i32 @pg_atomic_exchange_u32(ptr noundef %0, i32 noundef %1) #3 {
  %3 = alloca ptr, align 8
  %4 = alloca i32, align 4
  store ptr %0, ptr %3, align 8
  store i32 %1, ptr %4, align 4
  %5 = load ptr, ptr %3, align 8
  %6 = load i32, ptr %4, align 4
  %7 = call i32 @pg_atomic_exchange_u32_impl(ptr noundef %5, i32 noundef %6)
  ret i32 %7
}

; Function Attrs: inlinehint nounwind uwtable
define internal i64 @pg_atomic_read_u64(ptr noundef %0) #3 {
  %2 = alloca ptr, align 8
  store ptr %0, ptr %2, align 8
  %3 = load ptr, ptr %2, align 8
  %4 = call i64 @pg_atomic_read_u64_impl(ptr noundef %3)
  ret i64 %4
}

; Function Attrs: nounwind uwtable
define dso_local void @ProcessProcSignalBarrier() #0 {
  %1 = alloca i64, align 8
  %2 = alloca i64, align 8
  %3 = alloca i32, align 4
  %4 = alloca i32, align 4
  %5 = alloca i8, align 1
  %6 = alloca ptr, align 8
  %7 = alloca ptr, align 8
  %8 = alloca [1 x %struct.__jmp_buf_tag], align 16
  %9 = alloca i8, align 1
  %10 = alloca i32, align 4
  %11 = alloca i8, align 1
  call void @llvm.lifetime.start.p0(i64 8, ptr %1) #11
  call void @llvm.lifetime.start.p0(i64 8, ptr %2) #11
  call void @llvm.lifetime.start.p0(i64 4, ptr %3) #11
  %12 = load volatile i32, ptr @ProcSignalBarrierPending, align 4
  %13 = icmp ne i32 %12, 0
  br i1 %13, label %15, label %14

14:                                               ; preds = %0
  store i32 1, ptr %4, align 4
  br label %89

15:                                               ; preds = %0
  store volatile i32 0, ptr @ProcSignalBarrierPending, align 4
  %16 = load ptr, ptr @MyProcSignalSlot, align 8
  %17 = getelementptr inbounds nuw %struct.ProcSignalSlot, ptr %16, i32 0, i32 5
  %18 = call i64 @pg_atomic_read_u64(ptr noundef %17)
  store i64 %18, ptr %1, align 8
  %19 = load ptr, ptr @ProcSignal, align 8
  %20 = getelementptr inbounds nuw %struct.ProcSignalHeader, ptr %19, i32 0, i32 0
  %21 = call i64 @pg_atomic_read_u64(ptr noundef %20)
  store i64 %21, ptr %2, align 8
  %22 = load i64, ptr %1, align 8
  %23 = load i64, ptr %2, align 8
  %24 = icmp eq i64 %22, %23
  br i1 %24, label %25, label %26

25:                                               ; preds = %15
  store i32 1, ptr %4, align 4
  br label %89

26:                                               ; preds = %15
  %27 = load ptr, ptr @MyProcSignalSlot, align 8
  %28 = getelementptr inbounds nuw %struct.ProcSignalSlot, ptr %27, i32 0, i32 6
  %29 = call i32 @pg_atomic_exchange_u32(ptr noundef %28, i32 noundef 0)
  store volatile i32 %29, ptr %3, align 4
  %30 = load volatile i32, ptr %3, align 4
  %31 = icmp ne i32 %30, 0
  br i1 %31, label %32, label %83

32:                                               ; preds = %26
  call void @llvm.lifetime.start.p0(i64 1, ptr %5) #11
  store i8 1, ptr %5, align 1
  br label %33

33:                                               ; preds = %32
  call void @llvm.lifetime.start.p0(i64 8, ptr %6) #11
  %34 = load ptr, ptr @PG_exception_stack, align 8
  store ptr %34, ptr %6, align 8
  call void @llvm.lifetime.start.p0(i64 8, ptr %7) #11
  %35 = load ptr, ptr @error_context_stack, align 8
  store ptr %35, ptr %7, align 8
  call void @llvm.lifetime.start.p0(i64 200, ptr %8) #11
  call void @llvm.lifetime.start.p0(i64 1, ptr %9) #11
  store i8 0, ptr %9, align 1
  %36 = getelementptr inbounds [1 x %struct.__jmp_buf_tag], ptr %8, i64 0, i64 0
  %37 = call i32 @__sigsetjmp(ptr noundef %36, i32 noundef 0) #14
  %38 = icmp eq i32 %37, 0
  br i1 %38, label %39, label %63

39:                                               ; preds = %33
  store ptr %8, ptr @PG_exception_stack, align 8
  br label %40

40:                                               ; preds = %61, %39
  %41 = load volatile i32, ptr %3, align 4
  %42 = icmp ne i32 %41, 0
  br i1 %42, label %43, label %62

43:                                               ; preds = %40
  call void @llvm.lifetime.start.p0(i64 4, ptr %10) #11
  call void @llvm.lifetime.start.p0(i64 1, ptr %11) #11
  store i8 1, ptr %11, align 1
  %44 = load volatile i32, ptr %3, align 4
  %45 = call i32 @pg_rightmost_one_pos32(i32 noundef %44)
  store i32 %45, ptr %10, align 4
  %46 = load i32, ptr %10, align 4
  switch i32 %46, label %50 [
    i32 0, label %47
  ]

47:                                               ; preds = %43
  %48 = call zeroext i1 @ProcessBarrierSmgrRelease()
  %49 = zext i1 %48 to i8
  store i8 %49, ptr %11, align 1
  br label %50

50:                                               ; preds = %43, %47
  %51 = load i32, ptr %10, align 4
  %52 = shl i32 1, %51
  %53 = xor i32 %52, -1
  %54 = load volatile i32, ptr %3, align 4
  %55 = and i32 %54, %53
  store volatile i32 %55, ptr %3, align 4
  %56 = load i8, ptr %11, align 1, !range !4, !noundef !5
  %57 = trunc i8 %56 to i1
  br i1 %57, label %61, label %58

58:                                               ; preds = %50
  %59 = load i32, ptr %10, align 4
  %60 = shl i32 1, %59
  call void @ResetProcSignalBarrierBits(i32 noundef %60)
  store i8 0, ptr %5, align 1
  br label %61

61:                                               ; preds = %58, %50
  call void @llvm.lifetime.end.p0(i64 1, ptr %11) #11
  call void @llvm.lifetime.end.p0(i64 4, ptr %10) #11
  br label %40, !llvm.loop !28

62:                                               ; preds = %40
  br label %67

63:                                               ; preds = %33
  %64 = load ptr, ptr %6, align 8
  store ptr %64, ptr @PG_exception_stack, align 8
  %65 = load ptr, ptr %7, align 8
  store ptr %65, ptr @error_context_stack, align 8
  %66 = load volatile i32, ptr %3, align 4
  call void @ResetProcSignalBarrierBits(i32 noundef %66)
  call void @pg_re_throw() #15
  unreachable

67:                                               ; preds = %62
  %68 = load i8, ptr %9, align 1, !range !4, !noundef !5
  %69 = trunc i8 %68 to i1
  br i1 %69, label %70, label %71

70:                                               ; preds = %67
  call void @pg_re_throw() #15
  unreachable

71:                                               ; preds = %67
  %72 = load ptr, ptr %6, align 8
  store ptr %72, ptr @PG_exception_stack, align 8
  %73 = load ptr, ptr %7, align 8
  store ptr %73, ptr @error_context_stack, align 8
  call void @llvm.lifetime.end.p0(i64 1, ptr %9) #11
  call void @llvm.lifetime.end.p0(i64 200, ptr %8) #11
  call void @llvm.lifetime.end.p0(i64 8, ptr %7) #11
  call void @llvm.lifetime.end.p0(i64 8, ptr %6) #11
  br label %74

74:                                               ; preds = %71
  br label %75

75:                                               ; preds = %74
  %76 = load i8, ptr %5, align 1, !range !4, !noundef !5
  %77 = trunc i8 %76 to i1
  br i1 %77, label %79, label %78

78:                                               ; preds = %75
  store i32 1, ptr %4, align 4
  br label %80

79:                                               ; preds = %75
  store i32 0, ptr %4, align 4
  br label %80

80:                                               ; preds = %79, %78
  call void @llvm.lifetime.end.p0(i64 1, ptr %5) #11
  %81 = load i32, ptr %4, align 4
  switch i32 %81, label %89 [
    i32 0, label %82
  ]

82:                                               ; preds = %80
  br label %83

83:                                               ; preds = %82, %26
  %84 = load ptr, ptr @MyProcSignalSlot, align 8
  %85 = getelementptr inbounds nuw %struct.ProcSignalSlot, ptr %84, i32 0, i32 5
  %86 = load i64, ptr %2, align 8
  call void @pg_atomic_write_u64(ptr noundef %85, i64 noundef %86)
  %87 = load ptr, ptr @MyProcSignalSlot, align 8
  %88 = getelementptr inbounds nuw %struct.ProcSignalSlot, ptr %87, i32 0, i32 7
  call void @ConditionVariableBroadcast(ptr noundef %88)
  store i32 0, ptr %4, align 4
  br label %89

89:                                               ; preds = %83, %80, %25, %14
  call void @llvm.lifetime.end.p0(i64 4, ptr %3) #11
  call void @llvm.lifetime.end.p0(i64 8, ptr %2) #11
  call void @llvm.lifetime.end.p0(i64 8, ptr %1) #11
  %90 = load i32, ptr %4, align 4
  switch i32 %90, label %92 [
    i32 0, label %91
    i32 1, label %91
  ]

91:                                               ; preds = %89, %89
  ret void

92:                                               ; preds = %89
  unreachable
}