; Function Attrs: nounwind uwtable
define dso_local void @ProcessProcSignalBarrier() local_unnamed_addr #0 {
  %1 = alloca i32, align 4
  %2 = alloca [1 x %struct.__jmp_buf_tag], align 16
  call void @llvm.lifetime.start.p0(i64 4, ptr nonnull %1)
  %3 = load volatile i32, ptr @ProcSignalBarrierPending, align 4
  %.not = icmp eq i32 %3, 0
  br i1 %.not, label %39, label %4

4:                                                ; preds = %0
  store volatile i32 0, ptr @ProcSignalBarrierPending, align 4
  %5 = load ptr, ptr @MyProcSignalSlot, align 8
  %6 = getelementptr inbounds nuw i8, ptr %5, i64 72
  %7 = load volatile i64, ptr %6, align 8
  %8 = load ptr, ptr @ProcSignal, align 8
  %9 = load volatile i64, ptr %8, align 8
  %10 = icmp eq i64 %7, %9
  br i1 %10, label %39, label %11

11:                                               ; preds = %4
  %12 = getelementptr inbounds nuw i8, ptr %5, i64 80
  %13 = atomicrmw volatile xchg ptr %12, i32 0 seq_cst, align 4
  store volatile i32 %13, ptr %1, align 4
  %.0..0..0..0.11 = load volatile i32, ptr %1, align 4
  %.not22 = icmp eq i32 %.0..0..0..0.11, 0
  br i1 %.not22, label %35, label %14

14:                                               ; preds = %11
  %15 = load ptr, ptr @PG_exception_stack, align 8
  %16 = load ptr, ptr @error_context_stack, align 8
  call void @llvm.lifetime.start.p0(i64 200, ptr nonnull %2) #11
  %17 = call i32 @__sigsetjmp(ptr noundef nonnull %2, i32 noundef 0) #14
  %18 = icmp eq i32 %17, 0
  br i1 %18, label %19, label %31

19:                                               ; preds = %14
  store ptr %2, ptr @PG_exception_stack, align 8
  %.0..0..0..0.1226 = load volatile i32, ptr %1, align 4
  %.not2327 = icmp eq i32 %.0..0..0..0.1226, 0
  br i1 %.not2327, label %.critedge, label %.lr.ph.outer

.lr.ph.outer:                                     ; preds = %19, %.thread29
  %.02028.ph = phi i1 [ false, %.thread29 ], [ true, %19 ]
  br label %.lr.ph

.lr.ph:                                           ; preds = %.lr.ph.outer, %27
  %.0..0..0..0.13 = load volatile i32, ptr %1, align 4
  %20 = call range(i32 0, 32) i32 @llvm.cttz.i32(i32 %.0..0..0..0.13, i1 true)
  %cond1 = icmp eq i32 %20, 0
  br i1 %cond1, label %24, label %.thread

.thread:                                          ; preds = %.lr.ph
  %21 = shl nuw i32 1, %20
  %22 = xor i32 %21, -1
  %.0..0..0..0.1425 = load volatile i32, ptr %1, align 4
  %23 = and i32 %.0..0..0..0.1425, %22
  store volatile i32 %23, ptr %1, align 4
  br label %27

24:                                               ; preds = %.lr.ph
  %25 = call zeroext i1 @ProcessBarrierSmgrRelease() #11
  %.0..0..0..0.14 = load volatile i32, ptr %1, align 4
  %26 = and i32 %.0..0..0..0.14, -2
  store volatile i32 %26, ptr %1, align 4
  br i1 %25, label %27, label %.thread29

27:                                               ; preds = %.thread, %24
  %.0..0..0..0.12 = load volatile i32, ptr %1, align 4
  %.not23 = icmp eq i32 %.0..0..0..0.12, 0
  br i1 %.not23, label %._crit_edge, label %.lr.ph, !llvm.loop !27

.thread29:                                        ; preds = %24
  %28 = load ptr, ptr @MyProcSignalSlot, align 8
  %29 = getelementptr inbounds nuw i8, ptr %28, i64 80
  %30 = atomicrmw or ptr %29, i32 1 seq_cst, align 4
  store volatile i32 1, ptr @ProcSignalBarrierPending, align 4
  store volatile i32 1, ptr @InterruptPending, align 4
  %.0..0..0..0.1231 = load volatile i32, ptr %1, align 4
  %.not2332 = icmp eq i32 %.0..0..0..0.1231, 0
  br i1 %.not2332, label %._crit_edge.thread, label %.lr.ph.outer, !llvm.loop !27

._crit_edge.thread:                               ; preds = %.thread29
  store ptr %15, ptr @PG_exception_stack, align 8
  store ptr %16, ptr @error_context_stack, align 8
  call void @llvm.lifetime.end.p0(i64 200, ptr nonnull %2) #11
  br label %39

31:                                               ; preds = %14
  store ptr %15, ptr @PG_exception_stack, align 8
  store ptr %16, ptr @error_context_stack, align 8
  %.0..0..0..0.15 = load volatile i32, ptr %1, align 4
  %32 = load ptr, ptr @MyProcSignalSlot, align 8
  %33 = getelementptr inbounds nuw i8, ptr %32, i64 80
  %34 = atomicrmw or ptr %33, i32 %.0..0..0..0.15 seq_cst, align 4
  store volatile i32 1, ptr @ProcSignalBarrierPending, align 4
  store volatile i32 1, ptr @InterruptPending, align 4
  call void @pg_re_throw() #15
  unreachable

._crit_edge:                                      ; preds = %27
  store ptr %15, ptr @PG_exception_stack, align 8
  store ptr %16, ptr @error_context_stack, align 8
  call void @llvm.lifetime.end.p0(i64 200, ptr nonnull %2) #11
  br i1 %.02028.ph, label %35, label %39

.critedge:                                        ; preds = %19
  store ptr %15, ptr @PG_exception_stack, align 8
  store ptr %16, ptr @error_context_stack, align 8
  call void @llvm.lifetime.end.p0(i64 200, ptr nonnull %2) #11
  br label %35

35:                                               ; preds = %.critedge, %._crit_edge, %11
  %36 = load ptr, ptr @MyProcSignalSlot, align 8
  %37 = getelementptr inbounds nuw i8, ptr %36, i64 72
  store volatile i64 %9, ptr %37, align 8
  %38 = getelementptr inbounds nuw i8, ptr %36, i64 84
  call void @ConditionVariableBroadcast(ptr noundef nonnull %38) #11
  br label %39

39:                                               ; preds = %._crit_edge.thread, %4, %0, %._crit_edge, %35
  call void @llvm.lifetime.end.p0(i64 4, ptr nonnull %1)
  ret void
}